(dp0
S'Q'
p1
(dp2
(I7
I3
tp3
(dp4
S'do_nothing'
p5
F-385.4272506592963
sS'tap'
p6
F-1100.8728455501393
ss(I23
I-2
tp7
(dp8
g5
F31.639513469891284
sg6
I0
ss(I22
I-5
tp9
(dp10
g5
F33.0300106104257
sg6
I0
ss(I19
I4
tp11
(dp12
g5
F24.89645602548841
sg6
I0
ss(I23
I-1
tp13
(dp14
g5
F30.843169814242756
sg6
I0
ss(I17
I20
tp15
(dp16
g5
F-700.0
sg6
F22.82883998730473
ss(I20
I7
tp17
(dp18
g5
F29.510874582630336
sg6
I0
ss(I18
I19
tp19
(dp20
g5
F21.72082532094288
sg6
I0
ss(I21
I6
tp21
(dp22
g5
F31.014703147507888
sg6
I0
ss(I8
I5
tp23
(dp24
g5
F-504.76032948305823
sg6
F-886.2518466617344
ss(I9
I0
tp25
(dp26
g5
F-37.56309061404032
sg6
F1394.1070077624267
ss(I10
I7
tp27
(dp28
g5
F-693.5692792198147
sg6
F-290.0812316766488
ss(I21
I-5
tp29
(dp30
g5
F30.724967190598903
sg6
I0
ss(I16
I9
tp31
(dp32
g5
F1280.86725112548
sg6
I0
ss(I14
I1
tp33
(dp34
g5
F1406.675681504628
sg6
I0
ss(I12
I17
tp35
(dp36
g5
F5.299326611319163
sg6
I0
ss(I13
I-13
tp37
(dp38
g5
F1400.384002712761
sg6
I0
ss(I15
I4
tp39
(dp40
g5
F1384.887978670675
sg6
I0
ss(I15
I-13
tp41
(dp42
g5
F1396.1019552899065
sg6
I0
ss(I12
I-10
tp43
(dp44
g5
F1409.2466869755485
sg6
I0
ss(I14
I-10
tp45
(dp46
g5
F1409.9911447804195
sg6
I0
ss(I11
I-15
tp47
(dp48
g5
F1393.792426427202
sg6
I0
ss(I10
I-16
tp49
(dp50
g5
F1379.118010433827
sg6
I0
ss(I23
I-9
tp51
(dp52
g5
F17.670775096672077
sg6
I0
ss(I20
I-1
tp53
(dp54
g5
F29.55339503010848
sg6
I0
ss(I16
I0
tp55
(dp56
g5
F1399.6153516520003
sg6
I0
ss(I8
I-14
tp57
(dp58
g5
F1107.8920559076416
sg6
I0
ss(I19
I13
tp59
(dp60
g5
F23.55865653541592
sg6
I0
ss(I17
I13
tp61
(dp62
g5
F-700.0
sg6
F127.68921080866778
ss(I18
I10
tp63
(dp64
g5
F28.07973520507722
sg6
I0
ss(I17
I-13
tp65
(dp66
g5
F-669.6871993101513
sg6
F1361.5364802149263
ss(I8
I12
tp67
(dp68
g5
F-267.35774744134216
sg6
F-277.30196779018604
ss(I16
I-2
tp69
(dp70
g5
F1407.79126759627
sg6
I0
ss(I20
I-2
tp71
(dp72
g5
F26.345304531293227
sg6
I0
ss(I9
I9
tp73
(dp74
g5
F-219.17477745405452
sg6
F-242.31002603911566
ss(I10
I14
tp75
(dp76
g5
F-694.521852885
sg6
F-80.02640042438696
ss(I4
I-7
tp77
(dp78
g5
F1372.5107681770655
sg6
I0
ss(I11
I15
tp79
(dp80
g5
F-35.40755207691814
sg6
F-28.507363530034564
ss(I3
I-6
tp81
(dp82
g5
F1315.004175031164
sg6
I0
ss(I14
I8
tp83
(dp84
g5
F-16.4344191634522
sg6
F1267.6631081422347
ss(I12
I8
tp85
(dp86
g5
F-56.71036688468469
sg6
F-54.50979915612144
ss(I13
I-20
tp87
(dp88
g5
F1335.8990939851687
sg6
I0
ss(I15
I13
tp89
(dp90
g5
F6.644911368375189
sg6
I0
ss(I15
I-8
tp91
(dp92
g5
F1404.4102398827113
sg6
I0
ss(I13
I13
tp93
(dp94
g5
F4.506900708275408
sg6
I0
ss(I12
I-19
tp95
(dp96
g5
F1356.2334376962674
sg6
I0
ss(I14
I-7
tp97
(dp98
g5
F1406.1530713004827
sg6
I0
ss(I16
I-12
tp99
(dp100
g5
F-697.5892
sg6
F1388.990281958649
ss(I11
I-10
tp101
(dp102
g5
F1402.1378824079056
sg6
I0
ss(I17
I-6
tp103
(dp104
g5
F-696.858757
sg6
F1403.853158604801
ss(I10
I-5
tp105
(dp106
g5
F1389.0140486444025
sg6
I0
ss(I9
I-8
tp107
(dp108
g5
F1386.9109281975486
sg6
I0
ss(I16
I7
tp109
(dp110
g5
F1372.659341589718
sg6
I0
ss(I6
I14
tp111
(dp112
g5
F-330.8677014034556
sg6
F-1480.1910761151364
ss(I8
I-7
tp113
(dp114
g5
F1398.908730431432
sg6
I0
ss(I21
I-6
tp115
(dp116
g5
F28.017150423682626
sg6
I0
ss(I7
I15
tp117
(dp118
g5
F-355.31585117860857
sg6
F-574.6603988288848
ss(I18
I5
tp119
(dp120
g5
F22.00010229699517
sg6
I0
ss(I21
I8
tp121
(dp122
g5
F27.236585798615906
sg6
I0
ss(I16
I-11
tp123
(dp124
g5
F1394.3520280136813
sg6
I0
ss(I23
I6
tp125
(dp126
g5
F29.858604978825404
sg6
I0
ss(I7
I-3
tp127
(dp128
g5
F1400.0431109470096
sg6
I0
ss(I10
I9
tp129
(dp130
g5
F-698.663
sg6
F-150.6736594232163
ss(I11
I4
tp131
(dp132
g5
F1354.5553316990524
sg6
F-96.05168192607289
ss(I12
I7
tp133
(dp134
g5
F-64.43576977293787
sg6
F1.4186587967377946
ss(I2
I-2
tp135
(dp136
g5
F-689.6760474351373
sg6
F1398.5194892186246
ss(I10
I19
tp137
(dp138
g5
F-700.0
sg6
F-14.582869177880642
ss(I15
I10
tp139
(dp140
g5
F434.9759575102576
sg6
I0
ss(I17
I1
tp141
(dp142
g5
F-692.6567059678435
sg6
F1403.890261726718
ss(I13
I6
tp143
(dp144
g5
F-0.5697198788480238
sg6
F1334.1565850367317
ss(I13
I-1
tp145
(dp146
g5
F1346.583282957923
sg6
I0
ss(I17
I-1
tp147
(dp148
g5
F-679.9197409661209
sg6
F1405.3551062768272
ss(I11
I-17
tp149
(dp150
g5
F1377.0081705183275
sg6
I0
ss(I15
I-17
tp151
(dp152
g5
F1387.3592880293413
sg6
I0
ss(I6
I1
tp153
(dp154
g5
F-1957.53486846543
sg6
F-453.7927344492298
ss(I7
I4
tp155
(dp156
g5
F-748.1736546652182
sg6
F-761.1469859775077
ss(I20
I-4
tp157
(dp158
g5
F26.824471540122637
sg6
I0
ss(I17
I-19
tp159
(dp160
g5
F1302.554169892686
sg6
I0
ss(I19
I1
tp161
(dp162
g5
F29.04990156766371
sg6
I0
ss(I17
I17
tp163
(dp164
g5
F-700.0
sg6
F21.646455574788266
ss(I16
I-20
tp165
(dp166
g5
F1262.9960912241252
sg6
I0
ss(I7
I-6
tp167
(dp168
g5
F1403.3624737224725
sg6
I0
ss(I8
I0
tp169
(dp170
g5
F-116.74235642633978
sg6
F1394.6644009265153
ss(I10
I-1
tp171
(dp172
g5
F1393.7228393610658
sg6
I0
ss(I2
I-7
tp173
(dp174
g5
F1388.8566171307834
sg6
I0
ss(I1
I-2
tp175
(dp176
g5
F-700.0
sg6
F1387.6376265922888
ss(I11
I19
tp177
(dp178
g5
F-11.550203122016462
sg6
I0
ss(I0
I-5
tp179
(dp180
g5
F1386.6659863435611
sg6
I0
ss(I13
I-8
tp181
(dp182
g5
F1408.6128172428764
sg6
I0
ss(I15
I-12
tp183
(dp184
g5
F1395.5548631075474
sg6
I0
ss(I12
I-7
tp185
(dp186
g5
F1395.6326851815045
sg6
I0
ss(I14
I-19
tp187
(dp188
g5
F1345.9328507126472
sg6
I0
ss(I16
I-14
tp189
(dp190
g5
F1362.0350368964446
sg6
I0
ss(I11
I-6
tp191
(dp192
g5
F1391.4896095398615
sg6
I0
ss(I10
I-9
tp193
(dp194
g5
F1391.9551589504126
sg6
I0
ss(I23
I-8
tp195
(dp196
g5
F25.62175485352619
sg6
I0
ss(I22
I-7
tp197
(dp198
g5
F31.579653796960308
sg6
I0
ss(I19
I6
tp199
(dp200
g5
F28.74017545816339
sg6
I0
ss(I17
I10
tp201
(dp202
g5
F-532.3193262817142
sg6
F1205.0584770635767
ss(I20
I1
tp203
(dp204
g5
F25.91215371071177
sg6
I0
ss(I18
I17
tp205
(dp206
g5
F23.623895214379534
sg6
I0
ss(I21
I4
tp207
(dp208
g5
F28.45060814133191
sg6
I0
ss(I8
I7
tp209
(dp210
g5
F-397.687505228955
sg6
F-431.49587916413486
ss(I16
I-7
tp211
(dp212
g5
F1403.7319511577173
sg6
I0
ss(I9
I6
tp213
(dp214
g5
F-296.94908328517
sg6
F-511.00657482873123
ss(I5
I-3
tp215
(dp216
g5
F1358.3676276406834
sg6
I0
ss(I10
I5
tp217
(dp218
g5
F-268.89392121880985
sg6
F1278.681061863853
ss(I4
I-4
tp219
(dp220
g5
F1381.4161872004684
sg6
I0
ss(I11
I8
tp221
(dp222
g5
F-79.76370906833742
sg6
F-99.59323901937104
ss(I14
I7
tp223
(dp224
g5
F1312.9549280642068
sg6
I0
ss(I13
I-15
tp225
(dp226
g5
F1390.0189204440856
sg6
I0
ss(I15
I6
tp227
(dp228
g5
F1362.0557191344665
sg6
I0
ss(I15
I-3
tp229
(dp230
g5
F1407.1826233169284
sg6
I0
ss(I12
I-16
tp231
(dp232
g5
F1393.6118033105313
sg6
I0
ss(I14
I-12
tp233
(dp234
g5
F1398.7813378183362
sg6
I0
ss(I11
I-13
tp235
(dp236
g5
F1390.6837307456653
sg6
I0
ss(I10
I-2
tp237
(dp238
g5
F1398.8786471888004
sg6
I0
ss(I9
I-11
tp239
(dp240
g5
F1392.583646311261
sg6
I0
ss(I16
I2
tp241
(dp242
g5
F1403.7147993151696
sg6
I0
ss(I8
I-12
tp243
(dp244
g5
F1396.0917339037578
sg6
I0
ss(I19
I15
tp245
(dp246
g5
F20.661108305810068
sg6
I0
ss(I17
I3
tp247
(dp248
g5
F-685.6023816146403
sg6
F1386.910054675767
ss(I7
I16
tp249
(dp250
g5
F-487.37778599999996
sg6
F-150.89949206895687
ss(I20
I8
tp251
(dp252
g5
F26.327046059564847
sg6
I0
ss(I18
I8
tp253
(dp254
g5
F22.346788951083816
sg6
I0
ss(I17
I-15
tp255
(dp256
g5
F-686.6290831797695
sg6
F1338.852339670314
ss(I8
I14
tp257
(dp258
g5
F-214.00485253146488
sg6
F-280.16738177432387
ss(I22
I2
tp259
(dp260
g5
F31.076996709001694
sg6
I0
ss(I9
I15
tp261
(dp262
g5
F-3.1997578609371113
sg6
F1.0274256281828713
ss(I10
I12
tp263
(dp264
g5
F-698.6
sg6
F-71.20377282211079
ss(I4
I-5
tp265
(dp266
g5
F1388.0634311124036
sg6
I0
ss(I11
I1
tp267
(dp268
g5
F-6.612015509165021
sg6
F1393.5511637449588
ss(I3
I-4
tp269
(dp270
g5
F1384.0220862584033
sg6
I0
ss(I9
I17
tp271
(dp272
g5
F-126.88297470994469
sg6
F-120.25450019711852
ss(I14
I14
tp273
(dp274
g5
F10.781402336616951
sg6
I0
ss(I12
I10
tp275
(dp276
g5
F-54.468955956915416
sg6
F-46.367396838159664
ss(I15
I15
tp277
(dp278
g5
F12.652516101384515
sg6
I0
ss(I15
I-6
tp279
(dp280
g5
F1404.3084168501257
sg6
I0
ss(I13
I11
tp281
(dp282
g5
F-12.555483534749857
sg6
F-13.460382438182
ss(I12
I-17
tp283
(dp284
g5
F1386.6591641973473
sg6
I0
ss(I10
I-7
tp285
(dp286
g5
F1386.5466146592898
sg6
I0
ss(I16
I-16
tp287
(dp288
g5
F1367.7691093497017
sg6
I0
ss(I9
I-1
tp289
(dp290
g5
F1392.1359867769008
sg6
I0
ss(I6
I12
tp291
(dp292
g5
F-1400.0
sg6
F-267.936729433879
ss(I8
I-5
tp293
(dp294
g5
F1397.741985652369
sg6
I0
ss(I9
I-9
tp295
(dp296
g5
F1391.2942352037278
sg6
I0
ss(I17
I4
tp297
(dp298
g5
F-682.065666808296
sg6
F1390.6672868051387
ss(I7
I9
tp299
(dp300
g5
F-1145.2730606645027
sg6
F-1157.9075314777037
ss(I18
I3
tp301
(dp302
g5
F21.817046187825692
sg6
I0
ss(I22
I5
tp303
(dp304
g5
F30.24025577389662
sg6
I0
ss(I23
I0
tp305
(dp306
g5
F33.67201773341463
sg6
I0
ss(I6
I-6
tp307
(dp308
g5
F1384.251814531674
sg6
I0
ss(I11
I6
tp309
(dp310
g5
F131.00141509285393
sg6
F-132.65144682945942
ss(I14
I17
tp311
(dp312
g5
F1.33
sg6
I0
ss(I12
I1
tp313
(dp314
g5
F1407.4565471093633
sg6
I0
ss(I2
I-4
tp315
(dp316
g5
F1375.8993982489974
sg6
I0
ss(I10
I17
tp317
(dp318
g5
F-700.0
sg6
F-38.694771863149725
ss(I13
I4
tp319
(dp320
g5
F1398.8365912541592
sg6
I0
ss(I1
I-5
tp321
(dp322
g5
F1375.6973454286394
sg6
I0
ss(I13
I-3
tp323
(dp324
g5
F1407.190808696235
sg6
I0
ss(I12
I-4
tp325
(dp326
g5
F1401.068743551436
sg6
I0
ss(I6
I7
tp327
(dp328
g5
F-299.4955737352799
sg6
F-1643.233264702204
ss(I7
I6
tp329
(dp330
g5
F-1042.100558296101
sg6
F-1207.509076122407
ss(I23
I-3
tp331
(dp332
g5
F31.138010699581475
sg6
I0
ss(I19
I3
tp333
(dp334
g5
F25.128625869470362
sg6
I0
ss(I16
I-18
tp335
(dp336
g5
F1353.7386198566987
sg6
I0
ss(I20
I4
tp337
(dp338
g5
F28.544745874699064
sg6
I0
ss(I8
I2
tp339
(dp340
g5
F-598.5235680863142
sg6
F60.11973922388162
ss(I6
I-3
tp341
(dp342
g5
F-24.961929268716652
sg6
F1403.8111888036483
ss(I9
I3
tp343
(dp344
g5
F-454.00569468475055
sg6
F1342.2381838904982
ss(I1
I-4
tp345
(dp346
g5
F1376.079170039625
sg6
I0
ss(I11
I-1
tp347
(dp348
g5
F1395.2818505090709
sg6
I0
ss(I14
I2
tp349
(dp350
g5
F1382.5125709432489
sg6
I0
ss(I0
I-3
tp351
(dp352
g5
F1396.3273668872632
sg6
I0
ss(I13
I-10
tp353
(dp354
g5
F1406.4285112612079
sg6
I0
ss(I15
I-10
tp355
(dp356
g5
F1396.3350283033622
sg6
I0
ss(I12
I-5
tp357
(dp358
g5
F1387.645110301553
sg6
I0
ss(I14
I-13
tp359
(dp360
g5
F1391.0141321885474
sg6
I0
ss(I11
I-4
tp361
(dp362
g5
F1390.281727346213
sg6
I0
ss(I9999
I9999
tp363
(dp364
g5
F0.7
sg6
I0
ss(I10
I-11
tp365
(dp366
g5
F1391.9288330683228
sg6
I0
ss(I23
I-6
tp367
(dp368
g5
F33.04523688144396
sg6
I0
ss(I16
I-1
tp369
(dp370
g5
F1407.358343159126
sg6
I0
ss(I9
I-14
tp371
(dp372
g5
F1395.7810147354667
sg6
I0
ss(I16
I13
tp373
(dp374
g5
F11.577308758241394
sg6
I0
ss(I6
I16
tp375
(dp376
g5
F-700.0
sg6
F-908.002431
ss(I19
I8
tp377
(dp378
g5
F26.091599465912942
sg6
I0
ss(I17
I8
tp379
(dp380
g5
F-683.7075003407725
sg6
F1358.2816656450245
ss(I20
I3
tp381
(dp382
g5
F26.471116210178856
sg6
I0
ss(I18
I15
tp383
(dp384
g5
F23.634580880994186
sg6
I0
ss(I21
I2
tp385
(dp386
g5
F31.67511292236991
sg6
I0
ss(I8
I9
tp387
(dp388
g5
F-307.8516822742247
sg6
F-281.1462803307595
ss(I16
I-5
tp389
(dp390
g5
F1405.7474687315523
sg6
I0
ss(I9
I4
tp391
(dp392
g5
F-334.29286431397094
sg6
F-300.3987440281843
ss(I22
I-4
tp393
(dp394
g5
F29.474632784741935
sg6
I0
ss(I21
I10
tp395
(dp396
g5
F27.47450374583474
sg6
I0
ss(I6
I-2
tp397
(dp398
g5
F-697.3979551605264
sg6
F1366.2319770924073
ss(I10
I3
tp399
(dp400
g5
F-108.33724139042226
sg6
F1318.97505790598
ss(I4
I-2
tp401
(dp402
g5
F-688.1736190728891
sg6
F15.094256082215297
ss(I11
I10
tp403
(dp404
g5
F-116.75917955265321
sg6
F-76.73798566650213
ss(I3
I-7
tp405
(dp406
g5
F1393.6919767573736
sg6
I0
ss(I14
I5
tp407
(dp408
g5
F1372.5688093280537
sg6
I0
ss(I17
I-2
tp409
(dp410
g5
F-696.0623669125205
sg6
F1403.0291233063137
ss(I12
I13
tp411
(dp412
g5
F-11.87627317446516
sg6
F5.412493008026311
ss(I13
I-17
tp413
(dp414
g5
F1385.1443640541345
sg6
I0
ss(I15
I0
tp415
(dp416
g5
F1405.1136032430231
sg6
I0
ss(I13
I16
tp417
(dp418
g5
F7.7734530618043
sg6
I0
ss(I12
I-14
tp419
(dp420
g5
F1384.421286523703
sg6
I0
ss(I14
I-6
tp421
(dp422
g5
F1407.3140917160426
sg6
I0
ss(I11
I-11
tp423
(dp424
g5
F1406.2217673959162
sg6
I0
ss(I10
I-4
tp425
(dp426
g5
F1391.5911428292163
sg6
I0
ss(I9
I-5
tp427
(dp428
g5
F1393.5191353057926
sg6
I0
ss(I16
I4
tp429
(dp430
g5
F1376.0592884907321
sg6
I0
ss(I6
I11
tp431
(dp432
g5
F-1395.5347802689998
sg6
F-247.7624093072941
ss(I8
I-10
tp433
(dp434
g5
F1392.0236675002232
sg6
I0
ss(I21
I-3
tp435
(dp436
g5
F31.983869513225923
sg6
I0
ss(I20
I10
tp437
(dp438
g5
F21.737265768402096
sg6
I0
ss(I18
I6
tp439
(dp440
g5
F22.006351758454997
sg6
I0
ss(I17
I-9
tp441
(dp442
g5
F-694.038126609759
sg6
F1399.175258197319
ss(I22
I0
tp443
(dp444
g5
F33.61647561886036
sg6
I0
ss(I9
I13
tp445
(dp446
g5
F-160.89867604919704
sg6
F-194.87804749224676
ss(I23
I5
tp447
(dp448
g5
F30.752408571290914
sg6
I0
ss(I17
I-11
tp449
(dp450
g5
F-691.9510304338332
sg6
F1376.0354460551875
ss(I10
I10
tp451
(dp452
g5
F-699.09
sg6
F-145.93330224482017
ss(I11
I3
tp453
(dp454
g5
F1404.8524496722896
sg6
F-70.68266920209665
ss(I3
I-2
tp455
(dp456
g5
F-699.3
sg6
F12.176468407062599
ss(I14
I12
tp457
(dp458
g5
F-0.45624875727289904
sg6
F6.957882491341405
ss(I12
I4
tp459
(dp460
g5
F-17.453370452620238
sg6
F1386.1140084712138
ss(I10
I20
tp461
(dp462
g5
F-700.0
sg6
F1.19
ss(I15
I9
tp463
(dp464
g5
F1224.483740264087
sg6
I0
ss(I13
I9
tp465
(dp466
g5
F-2.828964344570533
sg6
F-40.27346847955019
ss(I14
I-3
tp467
(dp468
g5
F1406.7272447132023
sg6
I0
ss(I9
I-4
tp469
(dp470
g5
F1396.640627954031
sg6
I0
ss(I6
I2
tp471
(dp472
g5
F-2118.350727151468
sg6
F-2251.4268072888544
ss(I8
I-3
tp473
(dp474
g5
F1406.1836619097091
sg6
I0
ss(I7
I11
tp475
(dp476
g5
F-381.56564881300227
sg6
F-500.4131300032327
ss(I18
I1
tp477
(dp478
g5
F19.73655114922056
sg6
I0
ss(I16
I17
tp479
(dp480
g5
F19.140725779087667
sg6
I0
ss(I23
I2
tp481
(dp482
g5
F31.813924228284545
sg6
I0
ss(I7
I-7
tp483
(dp484
g5
F1395.9423850745372
sg6
I0
ss(I22
I-2
tp485
(dp486
g5
F31.989490534955845
sg6
I0
ss(I12
I3
tp487
(dp488
g5
F1399.1813782026693
sg6
F-11.475188289742562
ss(I2
I-6
tp489
(dp490
g5
F1326.5241805152086
sg6
I0
ss(I13
I2
tp491
(dp492
g5
F1387.692972535579
sg6
I0
ss(I13
I-5
tp493
(dp494
g5
F1406.3328056217867
sg6
I0
ss(I10
I-18
tp495
(dp496
g5
F1349.3375104832253
sg6
I0
ss(I12
I-2
tp497
(dp498
g5
F1399.6632722484337
sg6
I0
ss(I14
I-18
tp499
(dp500
g5
F1383.1639243592508
sg6
I0
ss(I11
I-7
tp501
(dp502
g5
F1394.757493579559
sg6
I0
ss(I6
I5
tp503
(dp504
g5
F-2095.829605107
sg6
F-412.7098339119216
ss(I7
I0
tp505
(dp506
g5
F-237.43708673162183
sg6
F1008.1484429221273
ss(I16
I8
tp507
(dp508
g5
F1290.7386518830976
sg6
I0
ss(I19
I5
tp509
(dp510
g5
F23.25041052422962
sg6
I0
ss(I20
I6
tp511
(dp512
g5
F28.106830402451173
sg6
I0
ss(I18
I18
tp513
(dp514
g5
F25.349218019574558
sg6
I0
ss(I7
I-10
tp515
(dp516
g5
F1366.274212587826
sg6
I0
ss(I21
I7
tp517
(dp518
g5
F29.755823349849578
sg6
I0
ss(I8
I4
tp519
(dp520
g5
F-696.0824128589111
sg6
F-543.0534702484692
ss(I9
I1
tp521
(dp522
g5
F1380.704848312378
sg6
F-174.59725278953925
ss(I10
I6
tp523
(dp524
g5
F-199.13440829330818
sg6
F-164.00669741051678
ss(I14
I0
tp525
(dp526
g5
F1368.0371431631065
sg6
I0
ss(I12
I16
tp527
(dp528
g5
F-10.613155463293756
sg6
I0
ss(I13
I-12
tp529
(dp530
g5
F1393.842993715274
sg6
I0
ss(I15
I5
tp531
(dp532
g5
F1357.3677575006034
sg6
I0
ss(I15
I-16
tp533
(dp534
g5
F1384.439203292137
sg6
I0
ss(I12
I-11
tp535
(dp536
g5
F1400.7716003449596
sg6
I0
ss(I14
I-15
tp537
(dp538
g5
F1392.2758468267234
sg6
I0
ss(I11
I-2
tp539
(dp540
g5
F1393.6180508579303
sg6
I0
ss(I19
I-1
tp541
(dp542
g5
F27.74650615712992
sg6
I0
ss(I9
I-16
tp543
(dp544
g5
F1358.9079717126715
sg6
I0
ss(I22
I-3
tp545
(dp546
g5
F31.94886013975924
sg6
I0
ss(I19
I10
tp547
(dp548
g5
F24.737353433961946
sg6
I0
ss(I17
I14
tp549
(dp550
g5
F17.672011436316716
sg6
I0
ss(I15
I-2
tp551
(dp552
g5
F1408.2916682492014
sg6
I0
ss(I16
I-6
tp553
(dp554
g5
F1405.5926929466561
sg6
I0
ss(I16
I12
tp555
(dp556
g5
F71.29262431030163
sg6
I0
ss(I18
I13
tp557
(dp558
g5
F26.573408729350824
sg6
I0
ss(I21
I0
tp559
(dp560
g5
F32.0965475119275
sg6
I0
ss(I8
I11
tp561
(dp562
g5
F-319.2542614494787
sg6
F-646.4980260335124
ss(I16
I-3
tp563
(dp564
g5
F1402.7511414576181
sg6
I0
ss(I9
I10
tp565
(dp566
g5
F-232.08142733862678
sg6
F-166.16166724257738
ss(I10
I1
tp567
(dp568
g5
F1396.4100139066195
sg6
F-115.10787798605588
ss(I8
I17
tp569
(dp570
g5
F4.211748869999999
sg6
I0
ss(I17
I6
tp571
(dp572
g5
F-679.0776744149553
sg6
F1368.1051130867947
ss(I11
I12
tp573
(dp574
g5
F-58.66503966697477
sg6
F-71.415210868479
ss(I3
I-5
tp575
(dp576
g5
F1386.3333316428561
sg6
I0
ss(I16
I10
tp577
(dp578
g5
F1184.402915339483
sg6
I0
ss(I14
I11
tp579
(dp580
g5
F-10.567618145199118
sg6
F1.252110569948412
ss(I12
I15
tp581
(dp582
g5
F-4.325631459662399
sg6
F5.758571009192991
ss(I13
I-19
tp583
(dp584
g5
F1343.376811478021
sg6
I0
ss(I15
I2
tp585
(dp586
g5
F1400.8279979221488
sg6
I0
ss(I15
I-7
tp587
(dp588
g5
F1407.4448565334685
sg6
I0
ss(I13
I14
tp589
(dp590
g5
F13.332858259702904
sg6
I0
ss(I12
I-20
tp591
(dp592
g5
F1356.765829432817
sg6
I0
ss(I14
I-8
tp593
(dp594
g5
F1409.4750719258006
sg6
I0
ss(I11
I-9
tp595
(dp596
g5
F1393.281557156174
sg6
I0
ss(I10
I-6
tp597
(dp598
g5
F1381.573716100969
sg6
I0
ss(I16
I-9
tp599
(dp600
g5
F1396.851740087649
sg6
I0
ss(I9
I-7
tp601
(dp602
g5
F1387.8640672074728
sg6
I0
ss(I12
I-1
tp603
(dp604
g5
F1404.2972357417248
sg6
I0
ss(I16
I6
tp605
(dp606
g5
F1372.138610335916
sg6
I0
ss(I6
I9
tp607
(dp608
g5
F-1665.8151313408548
sg6
F-1074.772528306269
ss(I8
I-8
tp609
(dp610
g5
F1394.2476927966532
sg6
I0
ss(I17
I7
tp611
(dp612
g5
F-697.1286056
sg6
F1352.8371072302514
ss(I7
I12
tp613
(dp614
g5
F-240.78727218472773
sg6
F-194.58260693735747
ss(I18
I4
tp615
(dp616
g5
F23.088656553375074
sg6
I0
ss(I21
I9
tp617
(dp618
g5
F30.360671906360547
sg6
I0
ss(I17
I-12
tp619
(dp620
g5
F-690.8071869096889
sg6
F1390.6088821421931
ss(I22
I6
tp621
(dp622
g5
F30.82801473180978
sg6
I0
ss(I23
I7
tp623
(dp624
g5
F30.27440894862118
sg6
I0
ss(I10
I8
tp625
(dp626
g5
F-697.1624869999999
sg6
F-144.30321048207705
ss(I11
I5
tp627
(dp628
g5
F-160.98494619472976
sg6
F1284.4058148964104
ss(I12
I6
tp629
(dp630
g5
F-45.7119111899448
sg6
F1188.6649391304743
ss(I10
I18
tp631
(dp632
g5
F-48.357606861921845
sg6
F-29.778457170814356
ss(I15
I11
tp633
(dp634
g5
F4.590968602580272
sg6
I0
ss(I13
I7
tp635
(dp636
g5
F-10.16218648154397
sg6
F1257.0807454900623
ss(I22
I7
tp637
(dp638
g5
F31.43256499625295
sg6
I0
ss(I11
I-20
tp639
(dp640
g5
F787.4552547367502
sg6
I0
ss(I17
I-7
tp641
(dp642
g5
F-685.45466121572
sg6
F1404.4682534313622
ss(I15
I-20
tp643
(dp644
g5
F1320.4571607683556
sg6
I0
ss(I6
I0
tp645
(dp646
g5
F-1896.9558543046073
sg6
F-266.7570248818913
ss(I7
I5
tp647
(dp648
g5
F-1157.6056027780508
sg6
F-477.85447141416796
ss(I16
I19
tp649
(dp650
g5
F0.7
sg6
I0
ss(I17
I-18
tp651
(dp652
g5
F1340.5320803165146
sg6
I0
ss(I19
I-2
tp653
(dp654
g5
F27.82334174570723
sg6
I0
ss(I17
I18
tp655
(dp656
g5
F23.87336666562811
sg6
I0
ss(I7
I-5
tp657
(dp658
g5
F1388.374432622579
sg6
I0
ss(I6
I-1
tp659
(dp660
g5
F-949.6587815320661
sg6
F-248.42323033867171
ss(I15
I16
tp661
(dp662
g5
F12.82543070870364
sg6
I0
ss(I17
I0
tp663
(dp664
g5
F-654.2425987544357
sg6
F1406.9880028577584
ss(I13
I0
tp665
(dp666
g5
F1380.4977635270297
sg6
I0
ss(I11
I16
tp667
(dp668
g5
F-36.17889896032414
sg6
F-18.089327514395222
ss(I22
I-6
tp669
(dp670
g5
F27.402106947094445
sg6
I0
ss(I0
I-6
tp671
(dp672
g5
F1279.1107605668194
sg6
I0
ss(I13
I-7
tp673
(dp674
g5
F1400.8600903941233
sg6
I0
ss(I15
I-11
tp675
(dp676
g5
F1402.229131500708
sg6
I0
ss(I12
I-8
tp677
(dp678
g5
F1404.471256801605
sg6
I0
ss(I14
I-20
tp679
(dp680
g5
F1320.691493331822
sg6
I0
ss(I11
I-5
tp681
(dp682
g5
F1389.5865629965406
sg6
I0
ss(I10
I-10
tp683
(dp684
g5
F1403.4469678103512
sg6
I0
ss(I7
I2
tp685
(dp686
g5
F-1063.3206627966251
sg6
F-1114.2174949677901
ss(I23
I-7
tp687
(dp688
g5
F27.426522156472508
sg6
I0
ss(I18
I7
tp689
(dp690
g5
F27.48423067207755
sg6
I0
ss(I22
I-8
tp691
(dp692
g5
F27.960190330500872
sg6
I0
ss(I19
I7
tp693
(dp694
g5
F28.4512298194182
sg6
I0
ss(I17
I11
tp695
(dp696
g5
F-689.8935685470999
sg6
F986.5734457292534
ss(I20
I0
tp697
(dp698
g5
F27.311943929058568
sg6
I0
ss(I18
I16
tp699
(dp700
g5
F24.17892476257024
sg6
I0
ss(I21
I5
tp701
(dp702
g5
F29.794472546802666
sg6
I0
ss(I8
I6
tp703
(dp704
g5
F-336.9305343699145
sg6
F-549.7460279288946
ss(I16
I-8
tp705
(dp706
g5
F1405.8523408362605
sg6
I0
ss(I9
I7
tp707
(dp708
g5
F-273.77278438519556
sg6
F-360.70374149869673
ss(I5
I-2
tp709
(dp710
g5
F-699.37
sg6
I0
ss(I10
I4
tp711
(dp712
g5
F-219.93033817860703
sg6
F1317.4934340746402
ss(I11
I9
tp713
(dp714
g5
F-96.37548986774782
sg6
F-160.78721378046973
ss(I14
I6
tp715
(dp716
g5
F1092.5186317147025
sg6
I0
ss(I12
I18
tp717
(dp718
g5
F0.9099999999999999
sg6
I0
ss(I13
I-14
tp719
(dp720
g5
F1365.9617420981172
sg6
I0
ss(I15
I7
tp721
(dp722
g5
F1270.3702913954019
sg6
I0
ss(I15
I-14
tp723
(dp724
g5
F1392.510228234802
sg6
I0
ss(I12
I-9
tp725
(dp726
g5
F1397.6024659272468
sg6
I0
ss(I14
I-9
tp727
(dp728
g5
F1408.1090029614477
sg6
I0
ss(I16
I-13
tp729
(dp730
g5
F1395.3458123385649
sg6
I0
ss(I11
I-16
tp731
(dp732
g5
F1390.3892085569576
sg6
I0
ss(I17
I-5
tp733
(dp734
g5
F-693.59408044142
sg6
F1406.4265879788895
ss(I10
I-15
tp735
(dp736
g5
F1391.548494333251
sg6
I0
ss(I9
I-10
tp737
(dp738
g5
F1390.595287440621
sg6
I0
ss(I16
I1
tp739
(dp740
g5
F-687.6451829175203
sg6
F1408.4088888957754
ss(I8
I-13
tp741
(dp742
g5
F1385.8097079826784
sg6
I0
ss(I19
I12
tp743
(dp744
g5
F23.72300970927979
sg6
I0
ss(I17
I12
tp745
(dp746
g5
F-698.1557303
sg6
F920.8577582332161
ss(I18
I11
tp747
(dp748
g5
F20.235518135839754
sg6
I0
ss(I17
I-14
tp749
(dp750
g5
F-698.01431
sg6
F1375.2747547150664
ss(I8
I13
tp751
(dp752
g5
F-54.14960452490084
sg6
F-82.22069272368465
ss(I9
I8
tp753
(dp754
g5
F-253.72539134090655
sg6
F-220.296842741924
ss(I10
I15
tp755
(dp756
g5
F-699.3
sg6
F-82.69619048600211
ss(I4
I-6
tp757
(dp758
g5
F1361.6333992977484
sg6
I0
ss(I11
I14
tp759
(dp760
g5
F-21.107473967049017
sg6
F-17.894722549020997
ss(I3
I-3
tp761
(dp762
g5
F1377.8206016297559
sg6
I0
ss(I9
I18
tp763
(dp764
g5
F6.502410891809
sg6
I0
ss(I14
I9
tp765
(dp766
g5
F10.915445362227562
sg6
I0
ss(I12
I9
tp767
(dp768
g5
F-70.12998450369801
sg6
F-48.04752216858468
ss(I13
I-21
tp769
(dp770
g5
F1167.9066483927404
sg6
I0
ss(I15
I12
tp771
(dp772
g5
F9.022934697524157
sg6
I0
ss(I21
I-2
tp773
(dp774
g5
F31.38819956400108
sg6
I0
ss(I13
I12
tp775
(dp776
g5
F-7.552532686960825
sg6
F-4.187768966405148
ss(I12
I-18
tp777
(dp778
g5
F1365.8061070766564
sg6
I0
ss(I14
I-2
tp779
(dp780
g5
F1402.8105742468235
sg6
I0
ss(I10
I-8
tp781
(dp782
g5
F1388.6123715399256
sg6
I0
ss(I6
I15
tp783
(dp784
g5
F9.299267454271977
sg6
I0
ss(I8
I-6
tp785
(dp786
g5
F1383.2317162910667
sg6
I0
ss(I17
I5
tp787
(dp788
g5
F-679.1749681354843
sg6
F1380.4173351244478
ss(I7
I14
tp789
(dp790
g5
F-574.6537793992085
sg6
F-193.36709962936845
ss(I18
I2
tp791
(dp792
g5
F23.881584646018375
sg6
I0
ss(I15
I-5
tp793
(dp794
g5
F1410.5191917449386
sg6
I0
ss(I16
I-10
tp795
(dp796
g5
F1400.6138738162351
sg6
I0
ss(I23
I1
tp797
(dp798
g5
F30.91810164561467
sg6
I0
ss(I7
I-4
tp799
(dp800
g5
F1399.8779552757267
sg6
I0
ss(I11
I7
tp801
(dp802
g5
F-123.46666411990662
sg6
F-32.3599910368738
ss(I14
I16
tp803
(dp804
g5
F10.092267573419534
sg6
I0
ss(I12
I0
tp805
(dp806
g5
F1397.761053134595
sg6
I0
ss(I10
I16
tp807
(dp808
g5
F-699.3
sg6
F-7.494312482531227
ss(I13
I5
tp809
(dp810
g5
F-0.0654597990454513
sg6
F1389.5501565558454
ss(I11
I-18
tp811
(dp812
g5
F1361.306692474557
sg6
I0
ss(I13
I-2
tp813
(dp814
g5
F1402.2964472512976
sg6
I0
ss(I15
I-18
tp815
(dp816
g5
F1345.91323189812
sg6
I0
ss(I14
I-21
tp817
(dp818
g5
F1053.668646857277
sg6
I0
ss(I16
I-15
tp819
(dp820
g5
F1371.6903474760993
sg6
I0
ss(I6
I6
tp821
(dp822
g5
F-274.2391756782356
sg6
F-1533.790382897704
ss(I7
I7
tp823
(dp824
g5
F-530.8223511004583
sg6
F-676.3176959036743
ss(I17
I-20
tp825
(dp826
g5
F1024.3077715674892
sg6
I0
ss(I17
I2
tp827
(dp828
g5
F-686.9009477180174
sg6
F1397.4504903879192
ss(I19
I0
tp829
(dp830
g5
F28.664473713828865
sg6
I0
ss(I17
I16
tp831
(dp832
g5
F-696.90999
sg6
F17.82623372954805
ss(I16
I-19
tp833
(dp834
g5
F1350.4160396153575
sg6
I0
ss(I7
I-11
tp835
(dp836
g5
F1157.0539812255076
sg6
I0
ss(I8
I1
tp837
(dp838
g5
F-437.7731634858037
sg6
F1392.4004257584534
ss(I6
I-4
tp839
(dp840
g5
F1389.9907914416383
sg6
I0
ss(I15
I18
tp841
(dp842
g5
F0.7
sg6
I0
ss(I1
I-3
tp843
(dp844
g5
F1365.2255241038433
sg6
I0
ss(I11
I18
tp845
(dp846
g5
F-12.248149576960367
sg6
F2.2523420487701253
ss(I0
I-4
tp847
(dp848
g5
F1398.4093288328083
sg6
I0
ss(I13
I-9
tp849
(dp850
g5
F1408.477714809013
sg6
I0
ss(I15
I-9
tp851
(dp852
g5
F1409.074056668771
sg6
I0
ss(I12
I-6
tp853
(dp854
g5
F1390.9879038013598
sg6
I0
ss(I14
I-14
tp855
(dp856
g5
F1398.7547231738706
sg6
I0
ss(I11
I-3
tp857
(dp858
g5
F1402.6037794433919
sg6
I0
ss(I10
I-12
tp859
(dp860
g5
F1391.614883382734
sg6
I0
ss(I23
I-5
tp861
(dp862
g5
F32.08407319396056
sg6
I0
ss(I9
I-13
tp863
(dp864
g5
F1395.4556056126426
sg6
I0
ss(I22
I-1
tp865
(dp866
g5
F30.513651001456218
sg6
I0
ss(I19
I9
tp867
(dp868
g5
F34.20606137882356
sg6
I0
ss(I17
I9
tp869
(dp870
g5
F-700.0
sg6
F1268.9916898759545
ss(I20
I2
tp871
(dp872
g5
F29.106419283597695
sg6
I0
ss(I18
I14
tp873
(dp874
g5
F21.41487913429982
sg6
I0
ss(I21
I3
tp875
(dp876
g5
F31.698149228740117
sg6
I0
ss(I8
I8
tp877
(dp878
g5
F-337.69007750186177
sg6
F-326.90734218647987
ss(I22
I8
tp879
(dp880
g5
F31.02555434932634
sg6
I0
ss(I9
I5
tp881
(dp882
g5
F-225.79209913340844
sg6
F-347.11108037632994
ss(I5
I-4
tp883
(dp884
g5
F1382.1517736549124
sg6
I0
ss(I10
I2
tp885
(dp886
g5
F1388.4915229955716
sg6
F-182.82697473346633
ss(I4
I-3
tp887
(dp888
g5
F16.02150286847073
sg6
I0
ss(I11
I11
tp889
(dp890
g5
F-71.58343192709134
sg6
F-66.53179503638466
ss(I14
I4
tp891
(dp892
g5
F1376.774892733706
sg6
I0
ss(I12
I12
tp893
(dp894
g5
F-30.42031781893805
sg6
F-37.28910475768806
ss(I13
I-16
tp895
(dp896
g5
F1390.0382622327888
sg6
I0
ss(I15
I1
tp897
(dp898
g5
F1404.9592385116703
sg6
I0
ss(I15
I-4
tp899
(dp900
g5
F1406.610085372191
sg6
I0
ss(I13
I17
tp901
(dp902
g5
F1.54
sg6
I0
ss(I12
I-15
tp903
(dp904
g5
F1389.777566163812
sg6
I0
ss(I14
I-11
tp905
(dp906
g5
F1396.9312537689095
sg6
I0
ss(I11
I-14
tp907
(dp908
g5
F1397.656826730592
sg6
I0
ss(I9
I-12
tp909
(dp910
g5
F1390.240297976565
sg6
I0
ss(I8
I-2
tp911
(dp912
g5
F-9.5406879937359
sg6
F1403.5011673979275
ss(I16
I3
tp913
(dp914
g5
F1391.1675444145076
sg6
I0
ss(I6
I10
tp915
(dp916
g5
F-903.0966713428877
sg6
F-1720.7260860677832
ss(I8
I-11
tp917
(dp918
g5
F1395.8876978837402
sg6
I0
ss(I19
I14
tp919
(dp920
g5
F20.99420006143716
sg6
I0
ss(I21
I-1
tp921
(dp922
g5
F30.80319878994029
sg6
I0
ss(I20
I9
tp923
(dp924
g5
F27.082528772986688
sg6
I0
ss(I18
I9
tp925
(dp926
g5
F21.275237071970622
sg6
I0
ss(I17
I-16
tp927
(dp928
g5
F-569.1945410548051
sg6
F1364.1996800509269
ss(I8
I15
tp929
(dp930
g5
F-209.07849030325985
sg6
F-243.85699609931726
ss(I22
I3
tp931
(dp932
g5
F30.646072336494296
sg6
I0
ss(I9
I14
tp933
(dp934
g5
F-697.474079855
sg6
F-17.86734223813751
ss(I16
I15
tp935
(dp936
g5
F13.644520026899386
sg6
I0
ss(I10
I13
tp937
(dp938
g5
F-81.11663166770467
sg6
F-118.91856630181584
ss(I11
I0
tp939
(dp940
g5
F-8.60414827813796
sg6
F1394.9416751687072
ss(I9
I16
tp941
(dp942
g5
F-157.13892352159698
sg6
F-171.33556101627892
ss(I14
I15
tp943
(dp944
g5
F11.342276454935169
sg6
I0
ss(I12
I11
tp945
(dp946
g5
F-48.84115392424771
sg6
F-55.13294817804102
ss(I15
I14
tp947
(dp948
g5
F11.182580283810482
sg6
I0
ss(I13
I10
tp949
(dp950
g5
F-20.57143415324738
sg6
F-14.971474609251597
ss(I14
I-4
tp951
(dp952
g5
F1406.1316024713124
sg6
I0
ss(I9
I-3
tp953
(dp954
g5
F1405.8821591904225
sg6
I0
ss(I6
I13
tp955
(dp956
g5
F-892.4896623620148
sg6
F-926.0879831457545
ss(I8
I-4
tp957
(dp958
g5
F1405.198091290706
sg6
I0
ss(I7
I8
tp959
(dp960
g5
F-267.4949769801658
sg6
F-788.1833760011846
ss(I16
I16
tp961
(dp962
g5
F17.118468010797983
sg6
I0
ss(I17
I-3
tp963
(dp964
g5
F-676.4603074284765
sg6
F1410.7880956634533
ss(I23
I3
tp965
(dp966
g5
F31.16665275228559
sg6
I0
ss(I7
I-2
tp967
(dp968
g5
F-125.16139054388226
sg6
F1404.961949151361
ss(I6
I-5
tp969
(dp970
g5
F1345.2912988818541
sg6
I0
ss(I12
I2
tp971
(dp972
g5
F-12.240255195441826
sg6
F1402.6787376957238
ss(I2
I-3
tp973
(dp974
g5
F1394.6647552547274
sg6
I0
ss(I17
I-4
tp975
(dp976
g5
F-694.8863242801611
sg6
F1411.0165487600302
ss(I13
I3
tp977
(dp978
g5
F1400.2708761017116
sg6
I0
ss(I1
I-6
tp979
(dp980
g5
F1341.9953236603264
sg6
I0
ss(I9
I-2
tp981
(dp982
g5
F1402.8338346275902
sg6
I0
ss(I13
I-4
tp983
(dp984
g5
F1406.2988147345
sg6
I0
ss(I12
I-3
tp985
(dp986
g5
F1404.2362201924063
sg6
I0
ss(I6
I4
tp987
(dp988
g5
F-139.07385323101238
sg6
F-2061.8541819920247
ss(I7
I1
tp989
(dp990
g5
F-188.09383628509272
sg6
F-965.54233767166
ss(I23
I-4
tp991
(dp992
g5
F32.4830453113482
sg6
I0
ss(I19
I2
tp993
(dp994
g5
F27.214099907324552
sg6
I0
ss(I16
I-17
tp995
(dp996
g5
F1321.6728930834445
sg6
I0
ss(I20
I5
tp997
(dp998
g5
F29.727083504670585
sg6
I0
ss(I7
I-9
tp999
(dp1000
g5
F1396.5253865042514
sg6
I0
ss(I8
I3
tp1001
(dp1002
g5
F-246.56397478361362
sg6
F-578.8433856143129
ss(I9
I2
tp1003
(dp1004
g5
F-424.44427362640147
sg6
F1365.8775319562612
ss(I14
I-1
tp1005
(dp1006
g5
F1405.2205427930792
sg6
I0
ss(I11
I20
tp1007
(dp1008
g5
F0.7
sg6
I0
ss(I14
I3
tp1009
(dp1010
g5
F1393.4276915573816
sg6
I0
ss(I0
I-2
tp1011
(dp1012
g5
F-699.3
sg6
F1373.7081516869046
ss(I13
I-11
tp1013
(dp1014
g5
F1409.5326318862565
sg6
I0
ss(I15
I-15
tp1015
(dp1016
g5
F1393.013909539651
sg6
I0
ss(I12
I-12
tp1017
(dp1018
g5
F1403.442347612223
sg6
I0
ss(I14
I-16
tp1019
(dp1020
g5
F1385.3022725475512
sg6
I0
ss(I10
I-14
tp1021
(dp1022
g5
F1395.0856680595623
sg6
I0
ss(I9
I-15
tp1023
(dp1024
g5
F1388.4498155042725
sg6
I0
ss(I16
I14
tp1025
(dp1026
g5
F13.261932830399221
sg6
I0
ss(I19
I11
tp1027
(dp1028
g5
F23.64704211811691
sg6
I0
ss(I17
I15
tp1029
(dp1030
g5
F-695.6651382407999
sg6
F14.534831639261506
ss(I20
I12
tp1031
(dp1032
g5
F25.73076937615039
sg6
I0
ss(I18
I12
tp1033
(dp1034
g5
F18.681997623106746
sg6
I0
ss(I21
I1
tp1035
(dp1036
g5
F29.893833236372114
sg6
I0
ss(I8
I10
tp1037
(dp1038
g5
F-822.7531069959825
sg6
F-556.6372633144073
ss(I16
I-4
tp1039
(dp1040
g5
F1407.1601293286337
sg6
I0
ss(I9
I11
tp1041
(dp1042
g5
F-211.15981823778935
sg6
F-328.8321009625663
ss(I5
I-6
tp1043
(dp1044
g5
F1313.6578034692936
sg6
I0
ss(I10
I0
tp1045
(dp1046
g5
F-5.02995495578822
sg6
F1394.2894050941666
ss(I8
I16
tp1047
(dp1048
g5
F-146.80438254564885
sg6
F-188.08861823553988
ss(I11
I13
tp1049
(dp1050
g5
F-28.72119461256178
sg6
F-28.09221594082544
ss(I14
I10
tp1051
(dp1052
g5
F3.109992408808484
sg6
F-11.60164215461227
ss(I12
I14
tp1053
(dp1054
g5
F-8.690296368577165
sg6
I0
ss(I13
I-18
tp1055
(dp1056
g5
F1350.8997876403484
sg6
I0
ss(I15
I3
tp1057
(dp1058
g5
F1383.7911822677834
sg6
I0
ss(I15
I-1
tp1059
(dp1060
g5
F1403.6198453608047
sg6
I0
ss(I13
I15
tp1061
(dp1062
g5
F4.59345591062368
sg6
I0
ss(I12
I-13
tp1063
(dp1064
g5
F1399.500989897739
sg6
I0
ss(I14
I-5
tp1065
(dp1066
g5
F1407.539832488729
sg6
I0
ss(I11
I-12
tp1067
(dp1068
g5
F1401.1167805454124
sg6
I0
ss(I10
I-3
tp1069
(dp1070
g5
F1394.2578530191363
sg6
I0
ss(I9
I-6
tp1071
(dp1072
g5
F1392.6415815827302
sg6
I0
ss(I16
I5
tp1073
(dp1074
g5
F1377.40540492559
sg6
I0
ss(I6
I8
tp1075
(dp1076
g5
F14.408939407529239
sg6
F-2223.4898276759614
ss(I8
I-9
tp1077
(dp1078
g5
F1392.6065661179998
sg6
I0
ss(I19
I16
tp1079
(dp1080
g5
F22.96347224670218
sg6
I0
ss(I21
I-4
tp1081
(dp1082
g5
F30.362339893037745
sg6
I0
ss(I7
I13
tp1083
(dp1084
g5
F-232.1940026953353
sg6
F-528.636959786979
ss(I7
I-1
tp1085
(dp1086
g5
F1395.3215221482167
sg6
F-476.02456787811167
ss(I20
I11
tp1087
(dp1088
g5
F26.31560674044639
sg6
I0
ss(I20
I-3
tp1089
(dp1090
g5
F28.614207219612762
sg6
I0
ss(I17
I-10
tp1091
(dp1092
g5
F-697.811443
sg6
F1396.0189438722653
ss(I22
I1
tp1093
(dp1094
g5
F33.51773310009804
sg6
I0
ss(I9
I12
tp1095
(dp1096
g5
F-167.6030753118855
sg6
F-253.5704258151818
ss(I23
I4
tp1097
(dp1098
g5
F30.801484185671306
sg6
I0
ss(I10
I11
tp1099
(dp1100
g5
F-700.0
sg6
F-128.0505593514078
ss(I21
I-7
tp1101
(dp1102
g5
F10.829333375865277
sg6
I0
ss(I11
I2
tp1103
(dp1104
g5
F-49.07866450392936
sg6
F1402.064702962841
ss(I5
I-5
tp1105
(dp1106
g5
F1325.505992117933
sg6
I0
ss(I16
I11
tp1107
(dp1108
g5
F-684.593340766842
sg6
F1115.3436983777988
ss(I14
I13
tp1109
(dp1110
g5
F11.825723254179682
sg6
I0
ss(I12
I5
tp1111
(dp1112
g5
F-47.84178636963311
sg6
F1360.820841018797
ss(I15
I8
tp1113
(dp1114
g5
F1200.677041253149
sg6
I0
ss(I13
I8
tp1115
(dp1116
g5
F-28.89473666897782
sg6
F-36.82859020531481
ss(I11
I-19
tp1117
(dp1118
g5
F1371.5285501455571
sg6
I0
ss(I15
I-19
tp1119
(dp1120
g5
F1339.3115001612246
sg6
I0
ss(I6
I3
tp1121
(dp1122
g5
F-1685.2413319221564
sg6
F-419.44925336785786
ss(I8
I-1
tp1123
(dp1124
g5
F-141.03109768173948
sg6
F1397.0025006235649
ss(I7
I10
tp1125
(dp1126
g5
F-891.8419409548819
sg6
F-673.5694111454553
ss(I16
I18
tp1127
(dp1128
g5
F20.913769529816847
sg6
I0
ss(I17
I-17
tp1129
(dp1130
g5
F-670.7450027744303
sg6
F1301.0385207412191
ss(I17
I19
tp1131
(dp1132
g5
F-697.7045039999999
sg6
F21.48877211157575
ss(I10
I-13
tp1133
(dp1134
g5
F1394.8997425007337
sg6
I0
ss(I7
I-8
tp1135
(dp1136
g5
F1393.2051936543571
sg6
I0
ss(I6
I-7
tp1137
(dp1138
g5
F1289.4757700834543
sg6
I0
ss(I2
I-5
tp1139
(dp1140
g5
F1389.6228842577739
sg6
I0
ss(I15
I17
tp1141
(dp1142
g5
F15.71446140650307
sg6
I0
ss(I13
I1
tp1143
(dp1144
g5
F1407.7036234672069
sg6
I0
ss(I11
I17
tp1145
(dp1146
g5
F-64.16025199961788
sg6
F-1.6391802545503245
ss(I22
I4
tp1147
(dp1148
g5
F31.424630884581333
sg6
I0
ss(I13
I-6
tp1149
(dp1150
g5
F1395.2208827755585
sg6
I0
ss(I17
I-8
tp1151
(dp1152
g5
F-698.028653
sg6
F1396.1749118623397
ss(I10
I-17
tp1153
(dp1154
g5
F1377.8416827678523
sg6
I0
ss(I14
I-17
tp1155
(dp1156
g5
F1386.0428613332112
sg6
I0
ss(I11
I-8
tp1157
(dp1158
g5
F1389.8245043516833
sg6
I0
sssS'iters'
p1159
I248
sS'best_iter'
p1160
I247
s.